; Function Attrs: nounwind uwtable
define i32 @Supp_ManReconstruct(ptr noundef readonly captures(none) %0, i32 noundef %1) local_unnamed_addr #3 {
  %3 = getelementptr inbounds nuw i8, ptr %0, i64 120
  %4 = load ptr, ptr %3, align 8, !tbaa !78
  %5 = getelementptr inbounds nuw i8, ptr %0, i64 112
  %6 = load ptr, ptr %5, align 8, !tbaa !77
  %7 = getelementptr i8, ptr %6, i64 4
  %.val25 = load i32, ptr %7, align 4, !tbaa !73
  %8 = load i32, ptr %4, align 8, !tbaa !37
  %.not.i.i = icmp slt i32 %8, %.val25
  br i1 %.not.i.i, label %9, label %Vec_WrdGrow.exit.i

9:                                                ; preds = %2
  %10 = getelementptr inbounds nuw i8, ptr %4, i64 8
  %11 = load ptr, ptr %10, align 8, !tbaa !10
  %.not9.i.i = icmp eq ptr %11, null
  %12 = sext i32 %.val25 to i64
  %13 = shl nsw i64 %12, 3
  br i1 %.not9.i.i, label %16, label %14

14:                                               ; preds = %9
  %15 = tail call ptr @realloc(ptr noundef nonnull %11, i64 noundef %13) #30
  br label %18

16:                                               ; preds = %9
  %17 = tail call noalias ptr @malloc(i64 noundef %13) #31
  br label %18

18:                                               ; preds = %16, %14
  %19 = phi ptr [ %15, %14 ], [ %17, %16 ]
  store ptr %19, ptr %10, align 8, !tbaa !10
  store i32 %.val25, ptr %4, align 8, !tbaa !37
  br label %Vec_WrdGrow.exit.i

Vec_WrdGrow.exit.i:                               ; preds = %18, %2
  %20 = icmp sgt i32 %.val25, 0
  br i1 %20, label %.lr.ph.i, label %Vec_WrdFill.exit

.lr.ph.i:                                         ; preds = %Vec_WrdGrow.exit.i
  %21 = getelementptr inbounds nuw i8, ptr %4, i64 8
  %22 = load ptr, ptr %21, align 8, !tbaa !10
  %23 = zext nneg i32 %.val25 to i64
  %24 = shl nuw nsw i64 %23, 3
  tail call void @llvm.memset.p0.i64(ptr align 8 %22, i8 -1, i64 %24, i1 false), !tbaa !11
  br label %Vec_WrdFill.exit

Vec_WrdFill.exit:                                 ; preds = %Vec_WrdGrow.exit.i, %.lr.ph.i
  %25 = getelementptr inbounds nuw i8, ptr %4, i64 4
  store i32 %.val25, ptr %25, align 4, !tbaa !3
  %.not = icmp eq i32 %1, 0
  br i1 %.not, label %27, label %26

26:                                               ; preds = %Vec_WrdFill.exit
  %puts = tail call i32 @puts(ptr nonnull dereferenceable(1) @str)
  br label %27

27:                                               ; preds = %26, %Vec_WrdFill.exit
  %28 = getelementptr inbounds nuw i8, ptr %0, i64 176
  %29 = load ptr, ptr %28, align 8, !tbaa !41
  %30 = getelementptr i8, ptr %29, i64 8
  %.val.i30 = load ptr, ptr %30, align 8, !tbaa !34
  %31 = load i32, ptr %.val.i30, align 4, !tbaa !35
  %.not2131 = icmp eq i32 %31, 0
  br i1 %.not2131, label %Abc_TtIsConst0.exit.thread, label %.lr.ph

Abc_TtIsConst0.exit.loopexit:                     ; preds = %.lr.ph.i26
  %32 = load ptr, ptr %28, align 8, !tbaa !41
  %33 = getelementptr i8, ptr %32, i64 8
  %.val.i = load ptr, ptr %33, align 8, !tbaa !34
  %34 = sext i32 %38 to i64
  %35 = getelementptr inbounds i32, ptr %.val.i, i64 %34
  %36 = load i32, ptr %35, align 4, !tbaa !35
  %.not21 = icmp eq i32 %36, 0
  br i1 %.not21, label %Abc_TtIsConst0.exit.thread, label %.lr.ph

.lr.ph:                                           ; preds = %27, %Abc_TtIsConst0.exit.loopexit
  %.01732 = phi i32 [ %38, %Abc_TtIsConst0.exit.loopexit ], [ 0, %27 ]
  %37 = tail call i32 @Supp_ManFindNextObj(ptr noundef nonnull %0, i32 noundef %1)
  %38 = tail call i32 @Supp_ManSubsetAdd(ptr noundef nonnull %0, i32 noundef %.01732, i32 noundef %37, i32 noundef %1)
  %39 = load ptr, ptr %3, align 8, !tbaa !78
  %40 = getelementptr i8, ptr %39, i64 8
  %.val24 = load ptr, ptr %40, align 8, !tbaa !10
  %41 = getelementptr i8, ptr %39, i64 4
  %.val = load i32, ptr %41, align 4, !tbaa !3
  %42 = icmp sgt i32 %.val, 0
  br i1 %42, label %.lr.ph.preheader.i, label %Abc_TtIsConst0.exit.thread

.lr.ph.preheader.i:                               ; preds = %.lr.ph
  %wide.trip.count.i = zext nneg i32 %.val to i64
  br label %.lr.ph.i26

43:                                               ; preds = %.lr.ph.i26
  %indvars.iv.next.i = add nuw nsw i64 %indvars.iv.i, 1
  %exitcond.not.i = icmp eq i64 %indvars.iv.next.i, %wide.trip.count.i
  br i1 %exitcond.not.i, label %Abc_TtIsConst0.exit.thread, label %.lr.ph.i26, !llvm.loop !15

.lr.ph.i26:                                       ; preds = %43, %.lr.ph.preheader.i
  %indvars.iv.i = phi i64 [ 0, %.lr.ph.preheader.i ], [ %indvars.iv.next.i, %43 ]
  %44 = getelementptr inbounds nuw i64, ptr %.val24, i64 %indvars.iv.i
  %45 = load i64, ptr %44, align 8, !tbaa !11
  %.not.i = icmp eq i64 %45, 0
  br i1 %.not.i, label %43, label %Abc_TtIsConst0.exit.loopexit

Abc_TtIsConst0.exit.thread:                       ; preds = %Abc_TtIsConst0.exit.loopexit, %.lr.ph, %43, %27
  %.1 = phi i32 [ 0, %27 ], [ %38, %43 ], [ %38, %.lr.ph ], [ %38, %Abc_TtIsConst0.exit.loopexit ]
  br i1 %.not, label %.split, label %.split19

.split19:                                         ; preds = %Abc_TtIsConst0.exit.thread
  %puts23 = tail call i32 @puts(ptr nonnull dereferenceable(1) @str.1)
  br label %.split

.split:                                           ; preds = %Abc_TtIsConst0.exit.thread, %.split19
  %.sink = phi i32 [ %1, %.split19 ], [ 0, %Abc_TtIsConst0.exit.thread ]
  %46 = tail call i32 @Supp_ManRandomSolution(ptr noundef %0, i32 noundef %.1, i32 noundef %.sink)
  ret i32 %46
}